; Function Attrs: nounwind uwtable
define void @pqParseDone(ptr noundef %0, i32 noundef %1) local_unnamed_addr #2 {
  %3 = getelementptr inbounds nuw i8, ptr %0, i64 352
  %4 = load ptr, ptr %3, align 8
  %.not = icmp eq ptr %4, null
  br i1 %.not, label %12, label %5

5:                                                ; preds = %2
  %6 = getelementptr inbounds nuw i8, ptr %0, i64 1000
  %7 = load ptr, ptr %6, align 8
  %8 = getelementptr inbounds nuw i8, ptr %0, i64 1012
  %9 = load i32, ptr %8, align 4
  %10 = sext i32 %9 to i64
  %11 = getelementptr inbounds i8, ptr %7, i64 %10
  tail call void @pqTraceOutputMessage(ptr noundef nonnull %0, ptr noundef %11, i1 noundef zeroext false) #19
  br label %12

12:                                               ; preds = %5, %2
  %13 = getelementptr inbounds nuw i8, ptr %0, i64 1012
  store i32 %1, ptr %13, align 4
  ret void
}